target datalayout = "e-m:e-p270:32:32-p271:32:32-p272:64:64-i64:64-i128:128-f80:128-n8:16:32:64-S128"
target triple = "x86_64-pc-linux-gnu"

%struct.prov_gcm_ctx_st = type { i32, i64, i64, i64, i64, i64, i64, i64, i64, i64, i32, i8, [128 x i8], [16 x i8], ptr, ptr, %struct.gcm128_context, ptr }
%struct.gcm128_context = type { %union.anon, %union.anon, %union.anon, %union.anon, %union.anon, %union.anon, [16 x %struct.u128], %struct.gcm_funcs_st, i32, i32, ptr, ptr, [48 x i8] }
%union.anon = type { [2 x i64] }
%struct.u128 = type { i64, i64 }
%struct.gcm_funcs_st = type { ptr, ptr, ptr }

; Function Attrs: nounwind uwtable
define internal i32 @vaes_gcm_cipherfinal(ptr noundef %0, ptr noundef %1) #0 {
  %3 = alloca i32, align 4
  %4 = alloca ptr, align 8
  %5 = alloca ptr, align 8
  %6 = alloca ptr, align 8
  %7 = alloca ptr, align 8
  %8 = alloca i32, align 4
  store ptr %0, ptr %4, align 8, !tbaa !9
  store ptr %1, ptr %5, align 8, !tbaa !12
  call void @llvm.lifetime.start.p0(i64 8, ptr %6) #5
  %9 = load ptr, ptr %4, align 8, !tbaa !9
  %10 = getelementptr inbounds nuw %struct.prov_gcm_ctx_st, ptr %9, i32 0, i32 16
  store ptr %10, ptr %6, align 8, !tbaa !14
  call void @llvm.lifetime.start.p0(i64 8, ptr %7) #5
  %11 = load ptr, ptr %6, align 8, !tbaa !14
  %12 = getelementptr inbounds nuw %struct.gcm128_context, ptr %11, i32 0, i32 8
  store ptr %12, ptr %7, align 8, !tbaa !31
  %13 = load ptr, ptr %6, align 8, !tbaa !14
  %14 = getelementptr inbounds nuw %struct.gcm128_context, ptr %13, i32 0, i32 9
  %15 = load i32, ptr %14, align 4, !tbaa !24
  %16 = icmp ugt i32 %15, 0
  br i1 %16, label %17, label %20

17:                                               ; preds = %2
  %18 = load ptr, ptr %6, align 8, !tbaa !14
  %19 = getelementptr inbounds nuw %struct.gcm128_context, ptr %18, i32 0, i32 9
  store ptr %19, ptr %7, align 8, !tbaa !31
  br label %20

20:                                               ; preds = %17, %2
  %21 = load ptr, ptr %6, align 8, !tbaa !14
  %22 = load ptr, ptr %7, align 8, !tbaa !31
  %23 = load i32, ptr %22, align 4, !tbaa !7
  call void @ossl_aes_gcm_finalize_avx512(ptr noundef %21, i32 noundef %23)
  %24 = load ptr, ptr %4, align 8, !tbaa !9
  %25 = getelementptr inbounds nuw %struct.prov_gcm_ctx_st, ptr %24, i32 0, i32 11
  %26 = load i8, ptr %25, align 4
  %27 = and i8 %26, 1
  %28 = zext i8 %27 to i32
  %29 = icmp ne i32 %28, 0
  br i1 %29, label %30, label %49

30:                                               ; preds = %20
  %31 = load ptr, ptr %4, align 8, !tbaa !9
  %32 = getelementptr inbounds nuw %struct.prov_gcm_ctx_st, ptr %31, i32 0, i32 3
  store i64 16, ptr %32, align 8, !tbaa !33
  %33 = load ptr, ptr %5, align 8, !tbaa !12
  %34 = load ptr, ptr %6, align 8, !tbaa !14
  %35 = getelementptr inbounds nuw %struct.gcm128_context, ptr %34, i32 0, i32 4
  %36 = getelementptr inbounds [16 x i8], ptr %35, i64 0, i64 0
  %37 = load ptr, ptr %4, align 8, !tbaa !9
  %38 = getelementptr inbounds nuw %struct.prov_gcm_ctx_st, ptr %37, i32 0, i32 3
  %39 = load i64, ptr %38, align 8, !tbaa !33
  %40 = icmp ule i64 %39, 16
  br i1 %40, label %41, label %45

41:                                               ; preds = %30
  %42 = load ptr, ptr %4, align 8, !tbaa !9
  %43 = getelementptr inbounds nuw %struct.prov_gcm_ctx_st, ptr %42, i32 0, i32 3
  %44 = load i64, ptr %43, align 8, !tbaa !33
  br label %46

45:                                               ; preds = %30
  br label %46

46:                                               ; preds = %45, %41
  %47 = phi i64 [ %44, %41 ], [ 16, %45 ]
  call void @llvm.memcpy.p0.p0.i64(ptr align 1 %33, ptr align 8 %36, i64 %47, i1 false)
  %48 = load ptr, ptr %7, align 8, !tbaa !31
  store i32 0, ptr %48, align 4, !tbaa !7
  br label %61

49:                                               ; preds = %20
  %50 = load ptr, ptr %6, align 8, !tbaa !14
  %51 = getelementptr inbounds nuw %struct.gcm128_context, ptr %50, i32 0, i32 4
  %52 = getelementptr inbounds [16 x i8], ptr %51, i64 0, i64 0
  %53 = load ptr, ptr %5, align 8, !tbaa !12
  %54 = load ptr, ptr %4, align 8, !tbaa !9
  %55 = getelementptr inbounds nuw %struct.prov_gcm_ctx_st, ptr %54, i32 0, i32 3
  %56 = load i64, ptr %55, align 8, !tbaa !33
  %57 = call i32 @CRYPTO_memcmp(ptr noundef %52, ptr noundef %53, i64 noundef %56)
  %58 = icmp ne i32 %57, 0
  %59 = xor i1 %58, true
  %60 = zext i1 %59 to i32
  store i32 %60, ptr %3, align 4
  store i32 1, ptr %8, align 4
  br label %62

61:                                               ; preds = %46
  store i32 1, ptr %3, align 4
  store i32 1, ptr %8, align 4
  br label %62

62:                                               ; preds = %61, %49
  call void @llvm.lifetime.end.p0(i64 8, ptr %7) #5
  call void @llvm.lifetime.end.p0(i64 8, ptr %6) #5
  %63 = load i32, ptr %3, align 4
  ret i32 %63
}