; Function Attrs: nounwind uwtable
define internal range(i32 0, 2) i32 @vaes_gcm_cipherfinal(ptr noundef %0, ptr noundef %1) #0 {
  %3 = getelementptr inbounds nuw i8, ptr %0, i64 248
  %4 = getelementptr inbounds nuw i8, ptr %0, i64 624
  %5 = getelementptr inbounds nuw i8, ptr %0, i64 628
  %6 = load i32, ptr %5, align 4, !tbaa !11
  %.not = icmp eq i32 %6, 0
  %spec.select = select i1 %.not, ptr %4, ptr %5
  %7 = load i32, ptr %spec.select, align 4, !tbaa !3
  tail call void @ossl_aes_gcm_finalize_avx512(ptr noundef nonnull %3, i32 noundef %7) #4
  %8 = getelementptr inbounds nuw i8, ptr %0, i64 84
  %9 = load i8, ptr %8, align 4
  %10 = and i8 %9, 1
  %.not17 = icmp eq i8 %10, 0
  br i1 %.not17, label %14, label %11

11:                                               ; preds = %2
  %12 = getelementptr inbounds nuw i8, ptr %0, i64 24
  store i64 16, ptr %12, align 8, !tbaa !17
  %13 = getelementptr inbounds nuw i8, ptr %0, i64 312
  tail call void @llvm.memcpy.p0.p0.i64(ptr noundef nonnull align 1 dereferenceable(16) %1, ptr noundef nonnull align 8 dereferenceable(16) %13, i64 16, i1 false)
  store i32 0, ptr %spec.select, align 4, !tbaa !3
  br label %20

14:                                               ; preds = %2
  %15 = getelementptr inbounds nuw i8, ptr %0, i64 312
  %16 = getelementptr inbounds nuw i8, ptr %0, i64 24
  %17 = load i64, ptr %16, align 8, !tbaa !17
  %18 = tail call i32 @CRYPTO_memcmp(ptr noundef nonnull %15, ptr noundef %1, i64 noundef %17) #4
  %.not18 = icmp eq i32 %18, 0
  %19 = zext i1 %.not18 to i32
  br label %20

20:                                               ; preds = %11, %14
  %.016 = phi i32 [ 1, %11 ], [ %19, %14 ]
  ret i32 %.016
}